; Function Attrs: mustprogress uwtable
define internal fastcc void @_ZNK8nlohmann16json_abi_v3_11_36detail5lexerINS0_10basic_jsonISt3mapSt6vectorNSt7__cxx1112basic_stringIcSt11char_traitsIcESaIcEEEblmdSaNS0_14adl_serializerES5_IhSaIhEEvEENS1_22iterator_input_adapterIZN12_GLOBAL__N_119DOCTEST_ANON_FUNC_8EvE10MyIteratorEEE16get_token_stringEv(ptr noalias nonnull align 8 %agg.result, ptr nocapture noundef nonnull readonly align 8 dereferenceable(148) %this) unnamed_addr #2 align 2 personality ptr @__gxx_personality_v0 {
entry:
  %cs = alloca %"struct.std::array.120", align 1
  tail call void @_ZNSt7__cxx1112basic_stringIcSt11char_traitsIcESaIcEEC1Ev(ptr noundef nonnull align 8 dereferenceable(32) %agg.result) #21
  %token_string = getelementptr inbounds i8, ptr %this, i64 56
  %0 = load ptr, ptr %token_string, align 8
  %_M_finish.i = getelementptr inbounds i8, ptr %this, i64 64
  %1 = load ptr, ptr %_M_finish.i, align 8
  %cmp.i.not6 = icmp eq ptr %0, %1
  br i1 %cmp.i.not6, label %nrvo.skipdtor, label %for.body

for.body:                                         ; preds = %entry, %for.inc
  %__begin0.sroa.0.07 = phi ptr [ %incdec.ptr.i, %for.inc ], [ %0, %entry ]
  %2 = load i8, ptr %__begin0.sroa.0.07, align 1
  %cmp = icmp ult i8 %2, 32
  br i1 %cmp, label %if.then, label %if.else

if.then:                                          ; preds = %for.body
  %conv = zext nneg i8 %2 to i32
  call void @llvm.memset.p0.i64(ptr noundef nonnull align 1 dereferenceable(9) %cs, i8 0, i64 9, i1 false)
  %call9 = call i32 (ptr, i64, ptr, ...) @snprintf(ptr noundef nonnull dereferenceable(1) %cs, i64 noundef 9, ptr noundef nonnull @.str.93, i32 noundef %conv) #21
  %call11 = invoke noundef nonnull align 8 dereferenceable(32) ptr @_ZNSt7__cxx1112basic_stringIcSt11char_traitsIcESaIcEEpLEPKc(ptr noundef nonnull align 8 dereferenceable(32) %agg.result, ptr noundef nonnull %cs)
          to label %for.inc unwind label %lpad

lpad:                                             ; preds = %if.else, %if.then
  %3 = landingpad { ptr, i32 }
          cleanup
  call void @_ZNSt7__cxx1112basic_stringIcSt11char_traitsIcESaIcEED1Ev(ptr noundef nonnull align 8 dereferenceable(32) %agg.result) #21
  resume { ptr, i32 } %3

if.else:                                          ; preds = %for.body
  invoke void @_ZNSt7__cxx1112basic_stringIcSt11char_traitsIcESaIcEE9push_backEc(ptr noundef nonnull align 8 dereferenceable(32) %agg.result, i8 noundef signext %2)
          to label %for.inc unwind label %lpad

for.inc:                                          ; preds = %if.then, %if.else
  %incdec.ptr.i = getelementptr inbounds i8, ptr %__begin0.sroa.0.07, i64 1
  %cmp.i.not = icmp eq ptr %incdec.ptr.i, %1
  br i1 %cmp.i.not, label %nrvo.skipdtor, label %for.body

nrvo.skipdtor:                                    ; preds = %for.inc, %entry
  ret void
}